target datalayout = "e-m:e-p270:32:32-p271:32:32-p272:64:64-i64:64-i128:128-f80:128-n8:16:32:64-S128"
target triple = "x86_64-pc-linux-gnu"

%struct.dt_pthread_mutex_t = type { %union.pthread_mutex_t }
%union.pthread_mutex_t = type { %struct.__pthread_mutex_s }
%struct.__pthread_mutex_s = type { i32, i32, i32, i32, i32, i16, i16, %struct.__pthread_internal_list }
%struct.__pthread_internal_list = type { ptr, ptr }
%struct.dt_iop_module_t = type { i32, ptr, ptr, ptr, ptr, ptr, ptr, ptr, ptr, ptr, ptr, ptr, ptr, ptr, ptr, ptr, ptr, ptr, ptr, ptr, ptr, ptr, ptr, ptr, ptr, ptr, ptr, ptr, ptr, ptr, ptr, ptr, ptr, ptr, ptr, ptr, ptr, ptr, ptr, ptr, ptr, ptr, ptr, ptr, ptr, ptr, ptr, ptr, ptr, ptr, ptr, ptr, ptr, ptr, ptr, ptr, ptr, [20 x i8], i32, i32, i32, i32, i32, i32, i32, [8 x i8], [4 x float], [4 x float], [4 x float], [4 x float], [4 x float], [4 x float], ptr, %struct.dt_dev_histogram_stats_t, [4 x i32], i32, i32, ptr, i32, i32, ptr, ptr, i32, ptr, %struct.dt_pthread_mutex_t, ptr, ptr, ptr, ptr, %struct.anon, ptr, ptr, ptr, ptr, ptr, ptr, ptr, i32, ptr, ptr, ptr, ptr, ptr, ptr, ptr, i32, ptr, i32, [128 x i8], i32, ptr, ptr, i32, [12 x i8] }
%struct.dt_dev_histogram_stats_t = type { i32, i64, i32, i32 }
%struct.anon = type { %struct.anon.0, %struct.anon.1 }
%struct.anon.0 = type { ptr, ptr }
%struct.anon.1 = type { ptr, i32 }
%struct.dt_develop_blend_params_t = type { i32, i32, i32, float, float, i32, i32, i32, float, i32, float, float, float, float, i32, [2 x i32], [64 x float], [16 x float], [20 x i8], i32, i32, i32 }
%struct.raster_combo_entry_t = type { ptr, i32 }

; Function Attrs: nounwind uwtable
define internal void @_raster_value_changed_callback(ptr noundef %0, ptr noundef %1) #0 {
  %3 = alloca ptr, align 8
  %4 = alloca ptr, align 8
  %5 = alloca ptr, align 8
  %6 = alloca i32, align 4
  %7 = alloca i32, align 4
  store ptr %0, ptr %3, align 8, !tbaa !11
  store ptr %1, ptr %4, align 8, !tbaa !6
  call void @llvm.lifetime.start.p0(i64 8, ptr %5) #11
  %8 = load ptr, ptr %3, align 8, !tbaa !11
  %9 = call ptr @dt_bauhaus_combobox_get_data(ptr noundef %8)
  store ptr %9, ptr %5, align 8, !tbaa !224
  %10 = load ptr, ptr %5, align 8, !tbaa !224
  %11 = icmp ne ptr %10, null
  br i1 %11, label %13, label %12

12:                                               ; preds = %2
  store i32 1, ptr %6, align 4
  br label %148

13:                                               ; preds = %2
  %14 = load ptr, ptr %5, align 8, !tbaa !224
  %15 = getelementptr inbounds nuw %struct.raster_combo_entry_t, ptr %14, i32 0, i32 0
  %16 = load ptr, ptr %15, align 8, !tbaa !226
  %17 = load ptr, ptr %4, align 8, !tbaa !6
  %18 = getelementptr inbounds nuw %struct.dt_iop_module_t, ptr %17, i32 0, i32 89
  %19 = getelementptr inbounds nuw %struct.anon, ptr %18, i32 0, i32 1
  %20 = getelementptr inbounds nuw %struct.anon.1, ptr %19, i32 0, i32 0
  %21 = load ptr, ptr %20, align 16, !tbaa !233
  %22 = icmp eq ptr %16, %21
  br i1 %22, label %23, label %34

23:                                               ; preds = %13
  %24 = load ptr, ptr %5, align 8, !tbaa !224
  %25 = getelementptr inbounds nuw %struct.raster_combo_entry_t, ptr %24, i32 0, i32 1
  %26 = load i32, ptr %25, align 8, !tbaa !228
  %27 = load ptr, ptr %4, align 8, !tbaa !6
  %28 = getelementptr inbounds nuw %struct.dt_iop_module_t, ptr %27, i32 0, i32 89
  %29 = getelementptr inbounds nuw %struct.anon, ptr %28, i32 0, i32 1
  %30 = getelementptr inbounds nuw %struct.anon.1, ptr %29, i32 0, i32 1
  %31 = load i32, ptr %30, align 8, !tbaa !234
  %32 = icmp eq i32 %26, %31
  br i1 %32, label %33, label %34

33:                                               ; preds = %23
  store i32 1, ptr %6, align 4
  br label %148

34:                                               ; preds = %23, %13
  %35 = load ptr, ptr %4, align 8, !tbaa !6
  %36 = getelementptr inbounds nuw %struct.dt_iop_module_t, ptr %35, i32 0, i32 89
  %37 = getelementptr inbounds nuw %struct.anon, ptr %36, i32 0, i32 1
  %38 = getelementptr inbounds nuw %struct.anon.1, ptr %37, i32 0, i32 0
  %39 = load ptr, ptr %38, align 16, !tbaa !233
  %40 = icmp ne ptr %39, null
  br i1 %40, label %41, label %53

41:                                               ; preds = %34
  %42 = load ptr, ptr %4, align 8, !tbaa !6
  %43 = getelementptr inbounds nuw %struct.dt_iop_module_t, ptr %42, i32 0, i32 89
  %44 = getelementptr inbounds nuw %struct.anon, ptr %43, i32 0, i32 1
  %45 = getelementptr inbounds nuw %struct.anon.1, ptr %44, i32 0, i32 0
  %46 = load ptr, ptr %45, align 16, !tbaa !233
  %47 = getelementptr inbounds nuw %struct.dt_iop_module_t, ptr %46, i32 0, i32 89
  %48 = getelementptr inbounds nuw %struct.anon, ptr %47, i32 0, i32 0
  %49 = getelementptr inbounds nuw %struct.anon.0, ptr %48, i32 0, i32 0
  %50 = load ptr, ptr %49, align 16, !tbaa !237
  %51 = load ptr, ptr %4, align 8, !tbaa !6
  %52 = call i32 @g_hash_table_remove(ptr noundef %50, ptr noundef %51)
  br label %53

53:                                               ; preds = %41, %34
  %54 = load ptr, ptr %5, align 8, !tbaa !224
  %55 = getelementptr inbounds nuw %struct.raster_combo_entry_t, ptr %54, i32 0, i32 0
  %56 = load ptr, ptr %55, align 8, !tbaa !226
  %57 = load ptr, ptr %4, align 8, !tbaa !6
  %58 = getelementptr inbounds nuw %struct.dt_iop_module_t, ptr %57, i32 0, i32 89
  %59 = getelementptr inbounds nuw %struct.anon, ptr %58, i32 0, i32 1
  %60 = getelementptr inbounds nuw %struct.anon.1, ptr %59, i32 0, i32 0
  store ptr %56, ptr %60, align 16, !tbaa !233
  %61 = load ptr, ptr %5, align 8, !tbaa !224
  %62 = getelementptr inbounds nuw %struct.raster_combo_entry_t, ptr %61, i32 0, i32 0
  %63 = load ptr, ptr %62, align 8, !tbaa !226
  %64 = icmp ne ptr %63, null
  br i1 %64, label %65, label %69

65:                                               ; preds = %53
  %66 = load ptr, ptr %5, align 8, !tbaa !224
  %67 = getelementptr inbounds nuw %struct.raster_combo_entry_t, ptr %66, i32 0, i32 1
  %68 = load i32, ptr %67, align 8, !tbaa !228
  br label %70

69:                                               ; preds = %53
  br label %70

70:                                               ; preds = %69, %65
  %71 = phi i32 [ %68, %65 ], [ -1, %69 ]
  %72 = load ptr, ptr %4, align 8, !tbaa !6
  %73 = getelementptr inbounds nuw %struct.dt_iop_module_t, ptr %72, i32 0, i32 89
  %74 = getelementptr inbounds nuw %struct.anon, ptr %73, i32 0, i32 1
  %75 = getelementptr inbounds nuw %struct.anon.1, ptr %74, i32 0, i32 1
  store i32 %71, ptr %75, align 8, !tbaa !234
  call void @llvm.lifetime.start.p0(i64 4, ptr %7) #11
  store i32 0, ptr %7, align 4, !tbaa !80
  %76 = load ptr, ptr %5, align 8, !tbaa !224
  %77 = getelementptr inbounds nuw %struct.raster_combo_entry_t, ptr %76, i32 0, i32 0
  %78 = load ptr, ptr %77, align 8, !tbaa !226
  %79 = icmp ne ptr %78, null
  br i1 %79, label %80, label %122

80:                                               ; preds = %70
  %81 = load ptr, ptr %5, align 8, !tbaa !224
  %82 = getelementptr inbounds nuw %struct.raster_combo_entry_t, ptr %81, i32 0, i32 0
  %83 = load ptr, ptr %82, align 8, !tbaa !226
  %84 = call i32 @dt_iop_is_raster_mask_used(ptr noundef %83, i32 noundef 0)
  %85 = icmp eq i32 %84, 0
  %86 = zext i1 %85 to i32
  store i32 %86, ptr %7, align 4, !tbaa !80
  %87 = load ptr, ptr %5, align 8, !tbaa !224
  %88 = getelementptr inbounds nuw %struct.raster_combo_entry_t, ptr %87, i32 0, i32 0
  %89 = load ptr, ptr %88, align 8, !tbaa !226
  %90 = getelementptr inbounds nuw %struct.dt_iop_module_t, ptr %89, i32 0, i32 89
  %91 = getelementptr inbounds nuw %struct.anon, ptr %90, i32 0, i32 0
  %92 = getelementptr inbounds nuw %struct.anon.0, ptr %91, i32 0, i32 0
  %93 = load ptr, ptr %92, align 16, !tbaa !237
  %94 = load ptr, ptr %4, align 8, !tbaa !6
  %95 = call i32 @g_hash_table_add(ptr noundef %93, ptr noundef %94)
  %96 = load ptr, ptr %4, align 8, !tbaa !6
  %97 = getelementptr inbounds nuw %struct.dt_iop_module_t, ptr %96, i32 0, i32 86
  %98 = load ptr, ptr %97, align 8, !tbaa !77
  %99 = getelementptr inbounds nuw %struct.dt_develop_blend_params_t, ptr %98, i32 0, i32 18
  %100 = getelementptr inbounds [20 x i8], ptr %99, i64 0, i64 0
  %101 = load ptr, ptr %5, align 8, !tbaa !224
  %102 = getelementptr inbounds nuw %struct.raster_combo_entry_t, ptr %101, i32 0, i32 0
  %103 = load ptr, ptr %102, align 8, !tbaa !226
  %104 = getelementptr inbounds nuw %struct.dt_iop_module_t, ptr %103, i32 0, i32 57
  %105 = getelementptr inbounds [20 x i8], ptr %104, i64 0, i64 0
  call void @llvm.memcpy.p0.p0.i64(ptr align 4 %100, ptr align 8 %105, i64 20, i1 false)
  %106 = load ptr, ptr %5, align 8, !tbaa !224
  %107 = getelementptr inbounds nuw %struct.raster_combo_entry_t, ptr %106, i32 0, i32 0
  %108 = load ptr, ptr %107, align 8, !tbaa !226
  %109 = getelementptr inbounds nuw %struct.dt_iop_module_t, ptr %108, i32 0, i32 107
  %110 = load i32, ptr %109, align 8, !tbaa !238
  %111 = load ptr, ptr %4, align 8, !tbaa !6
  %112 = getelementptr inbounds nuw %struct.dt_iop_module_t, ptr %111, i32 0, i32 86
  %113 = load ptr, ptr %112, align 8, !tbaa !77
  %114 = getelementptr inbounds nuw %struct.dt_develop_blend_params_t, ptr %113, i32 0, i32 19
  store i32 %110, ptr %114, align 4, !tbaa !239
  %115 = load ptr, ptr %5, align 8, !tbaa !224
  %116 = getelementptr inbounds nuw %struct.raster_combo_entry_t, ptr %115, i32 0, i32 1
  %117 = load i32, ptr %116, align 8, !tbaa !228
  %118 = load ptr, ptr %4, align 8, !tbaa !6
  %119 = getelementptr inbounds nuw %struct.dt_iop_module_t, ptr %118, i32 0, i32 86
  %120 = load ptr, ptr %119, align 8, !tbaa !77
  %121 = getelementptr inbounds nuw %struct.dt_develop_blend_params_t, ptr %120, i32 0, i32 20
  store i32 %117, ptr %121, align 4, !tbaa !240
  br label %136

122:                                              ; preds = %70
  %123 = load ptr, ptr %4, align 8, !tbaa !6
  %124 = getelementptr inbounds nuw %struct.dt_iop_module_t, ptr %123, i32 0, i32 86
  %125 = load ptr, ptr %124, align 8, !tbaa !77
  %126 = getelementptr inbounds nuw %struct.dt_develop_blend_params_t, ptr %125, i32 0, i32 18
  %127 = getelementptr inbounds [20 x i8], ptr %126, i64 0, i64 0
  call void @llvm.memset.p0.i64(ptr align 4 %127, i8 0, i64 20, i1 false)
  %128 = load ptr, ptr %4, align 8, !tbaa !6
  %129 = getelementptr inbounds nuw %struct.dt_iop_module_t, ptr %128, i32 0, i32 86
  %130 = load ptr, ptr %129, align 8, !tbaa !77
  %131 = getelementptr inbounds nuw %struct.dt_develop_blend_params_t, ptr %130, i32 0, i32 19
  store i32 0, ptr %131, align 4, !tbaa !239
  %132 = load ptr, ptr %4, align 8, !tbaa !6
  %133 = getelementptr inbounds nuw %struct.dt_iop_module_t, ptr %132, i32 0, i32 86
  %134 = load ptr, ptr %133, align 8, !tbaa !77
  %135 = getelementptr inbounds nuw %struct.dt_develop_blend_params_t, ptr %134, i32 0, i32 20
  store i32 -1, ptr %135, align 4, !tbaa !240
  br label %136

136:                                              ; preds = %122, %80
  %137 = load ptr, ptr %4, align 8, !tbaa !6
  %138 = getelementptr inbounds nuw %struct.dt_iop_module_t, ptr %137, i32 0, i32 77
  %139 = load ptr, ptr %138, align 8, !tbaa !92
  %140 = load ptr, ptr %4, align 8, !tbaa !6
  call void @dt_dev_add_history_item(ptr noundef %139, ptr noundef %140, i32 noundef 1)
  %141 = load i32, ptr %7, align 4, !tbaa !80
  %142 = icmp ne i32 %141, 0
  br i1 %142, label %143, label %147

143:                                              ; preds = %136
  %144 = load ptr, ptr %4, align 8, !tbaa !6
  %145 = getelementptr inbounds nuw %struct.dt_iop_module_t, ptr %144, i32 0, i32 77
  %146 = load ptr, ptr %145, align 8, !tbaa !92
  call void @dt_dev_reprocess_all(ptr noundef %146)
  br label %147

147:                                              ; preds = %143, %136
  call void @llvm.lifetime.end.p0(i64 4, ptr %7) #11
  store i32 0, ptr %6, align 4
  br label %148

148:                                              ; preds = %147, %33, %12
  call void @llvm.lifetime.end.p0(i64 8, ptr %5) #11
  %149 = load i32, ptr %6, align 4
  switch i32 %149, label %151 [
    i32 0, label %150
    i32 1, label %150
  ]

150:                                              ; preds = %148, %148
  ret void

151:                                              ; preds = %148
  unreachable
}