; Function Attrs: nounwind uwtable
define internal void @_raster_value_changed_callback(ptr noundef %0, ptr noundef %1) #0 {
  %3 = tail call ptr @dt_bauhaus_combobox_get_data(ptr noundef %0) #18
  %.not = icmp eq ptr %3, null
  br i1 %.not, label %56, label %4

4:                                                ; preds = %2
  %5 = load ptr, ptr %3, align 8, !tbaa !195
  %6 = getelementptr inbounds nuw i8, ptr %1, i64 800
  %7 = load ptr, ptr %6, align 16, !tbaa !202
  %8 = icmp eq ptr %5, %7
  br i1 %8, label %9, label %15

9:                                                ; preds = %4
  %10 = getelementptr inbounds nuw i8, ptr %3, i64 8
  %11 = load i32, ptr %10, align 8, !tbaa !197
  %12 = getelementptr inbounds nuw i8, ptr %1, i64 808
  %13 = load i32, ptr %12, align 8, !tbaa !203
  %14 = icmp eq i32 %11, %13
  br i1 %14, label %56, label %15

15:                                               ; preds = %9, %4
  %.not33 = icmp eq ptr %7, null
  br i1 %.not33, label %20, label %16

16:                                               ; preds = %15
  %17 = getelementptr inbounds nuw i8, ptr %7, i64 784
  %18 = load ptr, ptr %17, align 16, !tbaa !205
  %19 = tail call i32 @g_hash_table_remove(ptr noundef %18, ptr noundef nonnull %1) #18
  %.pre = load ptr, ptr %3, align 8, !tbaa !195
  br label %20

20:                                               ; preds = %16, %15
  %21 = phi ptr [ %.pre, %16 ], [ %5, %15 ]
  store ptr %21, ptr %6, align 16, !tbaa !202
  %.not34 = icmp eq ptr %21, null
  br i1 %.not34, label %.thread37, label %31

.thread37:                                        ; preds = %20
  %22 = getelementptr inbounds nuw i8, ptr %1, i64 808
  store i32 -1, ptr %22, align 8, !tbaa !203
  %23 = getelementptr inbounds nuw i8, ptr %1, i64 760
  %24 = load ptr, ptr %23, align 8, !tbaa !71
  %25 = getelementptr inbounds nuw i8, ptr %24, i64 388
  tail call void @llvm.memset.p0.i64(ptr noundef nonnull align 4 dereferenceable(20) %25, i8 0, i64 20, i1 false)
  %26 = load ptr, ptr %23, align 8, !tbaa !71
  %27 = getelementptr inbounds nuw i8, ptr %26, i64 408
  store i32 0, ptr %27, align 4, !tbaa !206
  %28 = getelementptr inbounds nuw i8, ptr %26, i64 412
  store i32 -1, ptr %28, align 4, !tbaa !207
  %29 = getelementptr inbounds nuw i8, ptr %1, i64 664
  %30 = load ptr, ptr %29, align 8, !tbaa !80
  tail call void @dt_dev_add_history_item(ptr noundef %30, ptr noundef nonnull %1, i32 noundef 1) #18
  br label %56

31:                                               ; preds = %20
  %32 = getelementptr inbounds nuw i8, ptr %3, i64 8
  %33 = load i32, ptr %32, align 8, !tbaa !197
  %34 = getelementptr inbounds nuw i8, ptr %1, i64 808
  store i32 %33, ptr %34, align 8, !tbaa !203
  %35 = tail call i32 @dt_iop_is_raster_mask_used(ptr noundef nonnull %21, i32 noundef 0) #18
  %.not39 = icmp eq i32 %35, 0
  %36 = load ptr, ptr %3, align 8, !tbaa !195
  %37 = getelementptr inbounds nuw i8, ptr %36, i64 784
  %38 = load ptr, ptr %37, align 16, !tbaa !205
  %39 = tail call i32 @g_hash_table_add(ptr noundef %38, ptr noundef nonnull %1) #18
  %40 = getelementptr inbounds nuw i8, ptr %1, i64 760
  %41 = load ptr, ptr %40, align 8, !tbaa !71
  %42 = getelementptr inbounds nuw i8, ptr %41, i64 388
  %43 = load ptr, ptr %3, align 8, !tbaa !195
  %44 = getelementptr inbounds nuw i8, ptr %43, i64 456
  tail call void @llvm.memcpy.p0.p0.i64(ptr noundef nonnull align 4 dereferenceable(20) %42, ptr noundef nonnull align 8 dereferenceable(20) %44, i64 20, i1 false)
  %45 = load ptr, ptr %3, align 8, !tbaa !195
  %46 = getelementptr inbounds nuw i8, ptr %45, i64 952
  %47 = load i32, ptr %46, align 8, !tbaa !208
  %48 = load ptr, ptr %40, align 8, !tbaa !71
  %49 = getelementptr inbounds nuw i8, ptr %48, i64 408
  store i32 %47, ptr %49, align 4, !tbaa !206
  %50 = load i32, ptr %32, align 8, !tbaa !197
  %51 = getelementptr inbounds nuw i8, ptr %48, i64 412
  store i32 %50, ptr %51, align 4, !tbaa !207
  %52 = getelementptr inbounds nuw i8, ptr %1, i64 664
  %53 = load ptr, ptr %52, align 8, !tbaa !80
  tail call void @dt_dev_add_history_item(ptr noundef %53, ptr noundef nonnull %1, i32 noundef 1) #18
  br i1 %.not39, label %54, label %56

54:                                               ; preds = %31
  %55 = load ptr, ptr %52, align 8, !tbaa !80
  tail call void @dt_dev_reprocess_all(ptr noundef %55) #18
  br label %56

56:                                               ; preds = %.thread37, %31, %54, %9, %2
  ret void
}